target datalayout = "e-m:e-p270:32:32-p271:32:32-p272:64:64-i64:64-i128:128-f80:128-n8:16:32:64-S128"
target triple = "x86_64-pc-linux-gnu"

%struct.AVHMAC = type { ptr, i32, i32, ptr, ptr, ptr, [128 x i8], i32 }

; Function Attrs: nounwind uwtable
define i32 @av_hmac_final(ptr noundef %0, ptr noundef %1, i32 noundef %2) #0 {
  %4 = alloca i32, align 4
  %5 = alloca ptr, align 8
  %6 = alloca ptr, align 8
  %7 = alloca i32, align 4
  %8 = alloca [128 x i8], align 16
  %9 = alloca i32, align 4
  %10 = alloca i32, align 4
  store ptr %0, ptr %5, align 8, !tbaa !8
  store ptr %1, ptr %6, align 8, !tbaa !19
  store i32 %2, ptr %7, align 4, !tbaa !4
  call void @llvm.lifetime.start.p0(i64 128, ptr %8) #5
  call void @llvm.lifetime.start.p0(i64 4, ptr %9) #5
  %11 = load i32, ptr %7, align 4, !tbaa !4
  %12 = load ptr, ptr %5, align 8, !tbaa !8
  %13 = getelementptr inbounds nuw %struct.AVHMAC, ptr %12, i32 0, i32 2
  %14 = load i32, ptr %13, align 4, !tbaa !13
  %15 = icmp ult i32 %11, %14
  br i1 %15, label %16, label %17

16:                                               ; preds = %3
  store i32 -22, ptr %4, align 4
  store i32 1, ptr %10, align 4
  br label %103

17:                                               ; preds = %3
  %18 = load ptr, ptr %5, align 8, !tbaa !8
  %19 = getelementptr inbounds nuw %struct.AVHMAC, ptr %18, i32 0, i32 3
  %20 = load ptr, ptr %19, align 8, !tbaa !16
  %21 = load ptr, ptr %5, align 8, !tbaa !8
  %22 = getelementptr inbounds nuw %struct.AVHMAC, ptr %21, i32 0, i32 0
  %23 = load ptr, ptr %22, align 8, !tbaa !17
  %24 = load ptr, ptr %6, align 8, !tbaa !19
  call void %20(ptr noundef %23, ptr noundef %24)
  %25 = load ptr, ptr %5, align 8, !tbaa !8
  %26 = getelementptr inbounds nuw %struct.AVHMAC, ptr %25, i32 0, i32 5
  %27 = load ptr, ptr %26, align 8, !tbaa !14
  %28 = load ptr, ptr %5, align 8, !tbaa !8
  %29 = getelementptr inbounds nuw %struct.AVHMAC, ptr %28, i32 0, i32 0
  %30 = load ptr, ptr %29, align 8, !tbaa !17
  call void %27(ptr noundef %30)
  store i32 0, ptr %9, align 4, !tbaa !4
  br label %31

31:                                               ; preds = %50, %17
  %32 = load i32, ptr %9, align 4, !tbaa !4
  %33 = load ptr, ptr %5, align 8, !tbaa !8
  %34 = getelementptr inbounds nuw %struct.AVHMAC, ptr %33, i32 0, i32 7
  %35 = load i32, ptr %34, align 8, !tbaa !21
  %36 = icmp slt i32 %32, %35
  br i1 %36, label %37, label %53

37:                                               ; preds = %31
  %38 = load ptr, ptr %5, align 8, !tbaa !8
  %39 = getelementptr inbounds nuw %struct.AVHMAC, ptr %38, i32 0, i32 6
  %40 = load i32, ptr %9, align 4, !tbaa !4
  %41 = sext i32 %40 to i64
  %42 = getelementptr inbounds [128 x i8], ptr %39, i64 0, i64 %41
  %43 = load i8, ptr %42, align 1, !tbaa !22
  %44 = zext i8 %43 to i32
  %45 = xor i32 %44, 92
  %46 = trunc i32 %45 to i8
  %47 = load i32, ptr %9, align 4, !tbaa !4
  %48 = sext i32 %47 to i64
  %49 = getelementptr inbounds [128 x i8], ptr %8, i64 0, i64 %48
  store i8 %46, ptr %49, align 1, !tbaa !22
  br label %50

50:                                               ; preds = %37
  %51 = load i32, ptr %9, align 4, !tbaa !4
  %52 = add nsw i32 %51, 1
  store i32 %52, ptr %9, align 4, !tbaa !4
  br label %31, !llvm.loop !26

53:                                               ; preds = %31
  %54 = load ptr, ptr %5, align 8, !tbaa !8
  %55 = getelementptr inbounds nuw %struct.AVHMAC, ptr %54, i32 0, i32 7
  %56 = load i32, ptr %55, align 8, !tbaa !21
  store i32 %56, ptr %9, align 4, !tbaa !4
  br label %57

57:                                               ; preds = %67, %53
  %58 = load i32, ptr %9, align 4, !tbaa !4
  %59 = load ptr, ptr %5, align 8, !tbaa !8
  %60 = getelementptr inbounds nuw %struct.AVHMAC, ptr %59, i32 0, i32 1
  %61 = load i32, ptr %60, align 8, !tbaa !11
  %62 = icmp slt i32 %58, %61
  br i1 %62, label %63, label %70

63:                                               ; preds = %57
  %64 = load i32, ptr %9, align 4, !tbaa !4
  %65 = sext i32 %64 to i64
  %66 = getelementptr inbounds [128 x i8], ptr %8, i64 0, i64 %65
  store i8 92, ptr %66, align 1, !tbaa !22
  br label %67

67:                                               ; preds = %63
  %68 = load i32, ptr %9, align 4, !tbaa !4
  %69 = add nsw i32 %68, 1
  store i32 %69, ptr %9, align 4, !tbaa !4
  br label %57, !llvm.loop !27

70:                                               ; preds = %57
  %71 = load ptr, ptr %5, align 8, !tbaa !8
  %72 = getelementptr inbounds nuw %struct.AVHMAC, ptr %71, i32 0, i32 4
  %73 = load ptr, ptr %72, align 8, !tbaa !15
  %74 = load ptr, ptr %5, align 8, !tbaa !8
  %75 = getelementptr inbounds nuw %struct.AVHMAC, ptr %74, i32 0, i32 0
  %76 = load ptr, ptr %75, align 8, !tbaa !17
  %77 = getelementptr inbounds [128 x i8], ptr %8, i64 0, i64 0
  %78 = load ptr, ptr %5, align 8, !tbaa !8
  %79 = getelementptr inbounds nuw %struct.AVHMAC, ptr %78, i32 0, i32 1
  %80 = load i32, ptr %79, align 8, !tbaa !11
  %81 = sext i32 %80 to i64
  call void %73(ptr noundef %76, ptr noundef %77, i64 noundef %81)
  %82 = load ptr, ptr %5, align 8, !tbaa !8
  %83 = getelementptr inbounds nuw %struct.AVHMAC, ptr %82, i32 0, i32 4
  %84 = load ptr, ptr %83, align 8, !tbaa !15
  %85 = load ptr, ptr %5, align 8, !tbaa !8
  %86 = getelementptr inbounds nuw %struct.AVHMAC, ptr %85, i32 0, i32 0
  %87 = load ptr, ptr %86, align 8, !tbaa !17
  %88 = load ptr, ptr %6, align 8, !tbaa !19
  %89 = load ptr, ptr %5, align 8, !tbaa !8
  %90 = getelementptr inbounds nuw %struct.AVHMAC, ptr %89, i32 0, i32 2
  %91 = load i32, ptr %90, align 4, !tbaa !13
  %92 = sext i32 %91 to i64
  call void %84(ptr noundef %87, ptr noundef %88, i64 noundef %92)
  %93 = load ptr, ptr %5, align 8, !tbaa !8
  %94 = getelementptr inbounds nuw %struct.AVHMAC, ptr %93, i32 0, i32 3
  %95 = load ptr, ptr %94, align 8, !tbaa !16
  %96 = load ptr, ptr %5, align 8, !tbaa !8
  %97 = getelementptr inbounds nuw %struct.AVHMAC, ptr %96, i32 0, i32 0
  %98 = load ptr, ptr %97, align 8, !tbaa !17
  %99 = load ptr, ptr %6, align 8, !tbaa !19
  call void %95(ptr noundef %98, ptr noundef %99)
  %100 = load ptr, ptr %5, align 8, !tbaa !8
  %101 = getelementptr inbounds nuw %struct.AVHMAC, ptr %100, i32 0, i32 2
  %102 = load i32, ptr %101, align 4, !tbaa !13
  store i32 %102, ptr %4, align 4
  store i32 1, ptr %10, align 4
  br label %103

103:                                              ; preds = %70, %16
  call void @llvm.lifetime.end.p0(i64 4, ptr %9) #5
  call void @llvm.lifetime.end.p0(i64 128, ptr %8) #5
  %104 = load i32, ptr %4, align 4
  ret i32 %104
}