; Function Attrs: nounwind uwtable
define i32 @av_hmac_final(ptr noundef readonly captures(none) %0, ptr noundef %1, i32 noundef %2) local_unnamed_addr #0 {
  %4 = alloca [128 x i8], align 16
  call void @llvm.lifetime.start.p0(i64 128, ptr nonnull %4) #6
  %5 = getelementptr inbounds nuw i8, ptr %0, i64 12
  %6 = load i32, ptr %5, align 4, !tbaa !10
  %7 = icmp ult i32 %2, %6
  br i1 %7, label %43, label %8

8:                                                ; preds = %3
  %9 = getelementptr inbounds nuw i8, ptr %0, i64 16
  %10 = load ptr, ptr %9, align 8, !tbaa !13
  %11 = load ptr, ptr %0, align 8, !tbaa !14
  tail call void %10(ptr noundef %11, ptr noundef %1) #6
  %12 = getelementptr inbounds nuw i8, ptr %0, i64 32
  %13 = load ptr, ptr %12, align 8, !tbaa !11
  %14 = load ptr, ptr %0, align 8, !tbaa !14
  tail call void %13(ptr noundef %14) #6
  %15 = getelementptr inbounds nuw i8, ptr %0, i64 168
  %16 = load i32, ptr %15, align 8, !tbaa !15
  %17 = icmp sgt i32 %16, 0
  br i1 %17, label %.lr.ph, label %.preheader

.lr.ph:                                           ; preds = %8
  %18 = getelementptr inbounds nuw i8, ptr %0, i64 40
  %wide.trip.count = zext nneg i32 %16 to i64
  br label %27

.preheader:                                       ; preds = %27, %8
  %19 = getelementptr inbounds nuw i8, ptr %0, i64 8
  %20 = load i32, ptr %19, align 8, !tbaa !4
  %21 = icmp slt i32 %16, %20
  br i1 %21, label %.lr.ph35.preheader, label %._crit_edge

.lr.ph35.preheader:                               ; preds = %.preheader
  %22 = sext i32 %16 to i64
  %scevgep = getelementptr i8, ptr %4, i64 %22
  %23 = xor i32 %16, -1
  %24 = add i32 %20, %23
  %25 = zext i32 %24 to i64
  %26 = add nuw nsw i64 %25, 1
  call void @llvm.memset.p0.i64(ptr noundef nonnull align 1 dereferenceable(1) %scevgep, i8 92, i64 %26, i1 false), !tbaa !16
  br label %._crit_edge

27:                                               ; preds = %.lr.ph, %27
  %indvars.iv = phi i64 [ 0, %.lr.ph ], [ %indvars.iv.next, %27 ]
  %28 = getelementptr inbounds nuw [128 x i8], ptr %18, i64 0, i64 %indvars.iv
  %29 = load i8, ptr %28, align 1, !tbaa !16
  %30 = xor i8 %29, 92
  %31 = getelementptr inbounds nuw [128 x i8], ptr %4, i64 0, i64 %indvars.iv
  store i8 %30, ptr %31, align 1, !tbaa !16
  %indvars.iv.next = add nuw nsw i64 %indvars.iv, 1
  %exitcond.not = icmp eq i64 %indvars.iv.next, %wide.trip.count
  br i1 %exitcond.not, label %.preheader, label %27, !llvm.loop !19

._crit_edge:                                      ; preds = %.lr.ph35.preheader, %.preheader
  %32 = getelementptr inbounds nuw i8, ptr %0, i64 24
  %33 = load ptr, ptr %32, align 8, !tbaa !12
  %34 = load ptr, ptr %0, align 8, !tbaa !14
  %35 = sext i32 %20 to i64
  call void %33(ptr noundef %34, ptr noundef nonnull %4, i64 noundef %35) #6
  %36 = load ptr, ptr %32, align 8, !tbaa !12
  %37 = load ptr, ptr %0, align 8, !tbaa !14
  %38 = load i32, ptr %5, align 4, !tbaa !10
  %39 = sext i32 %38 to i64
  call void %36(ptr noundef %37, ptr noundef %1, i64 noundef %39) #6
  %40 = load ptr, ptr %9, align 8, !tbaa !13
  %41 = load ptr, ptr %0, align 8, !tbaa !14
  call void %40(ptr noundef %41, ptr noundef %1) #6
  %42 = load i32, ptr %5, align 4, !tbaa !10
  br label %43

43:                                               ; preds = %3, %._crit_edge
  %.029 = phi i32 [ %42, %._crit_edge ], [ -22, %3 ]
  call void @llvm.lifetime.end.p0(i64 128, ptr nonnull %4) #6
  ret i32 %.029
}